; ModuleID = '16/1188.c'
source_filename = "16/1188.c"
target datalayout = "e-m:e-p270:32:32-p271:32:32-p272:64:64-i64:64-f80:128-n8:16:32:64-S128"
target triple = "x86_64-pc-linux-gnu"

@.str = private unnamed_addr constant [3 x i8] c"%s\00", align 1
@.str.1 = private unnamed_addr constant [3 x i8] c"%c\00", align 1

; Function Attrs: noinline nounwind uwtable
define dso_local i32 @main() #0 {
  %1 = alloca i32, align 4
  %2 = alloca [6 x i8], align 1
  %3 = alloca i32, align 4
  store i32 0, i32* %1, align 4
  %4 = bitcast [6 x i8]* %2 to i8*
  call void @llvm.memset.p0i8.i64(i8* align 1 %4, i8 0, i64 6, i1 false)
  %5 = call i32 (i8*, ...) @__isoc99_scanf(i8* getelementptr inbounds ([3 x i8], [3 x i8]* @.str, i64 0, i64 0), [6 x i8]* %2)
  store i32 0, i32* %3, align 4
  store i32 5, i32* %3, align 4
  br label %6

6:                                                ; preds = %19, %0
  %7 = load i32, i32* %3, align 4
  %8 = icmp sge i32 %7, 1
  br i1 %8, label %9, label %16

9:                                                ; preds = %6
  %10 = load i32, i32* %3, align 4
  %11 = sext i32 %10 to i64
  %12 = getelementptr inbounds [6 x i8], [6 x i8]* %2, i64 0, i64 %11
  %13 = load i8, i8* %12, align 1
  %14 = sext i8 %13 to i32
  %15 = icmp eq i32 %14, 0
  br label %16

16:                                               ; preds = %9, %6
  %17 = phi i1 [ false, %6 ], [ %15, %9 ]
  br i1 %17, label %18, label %22

18:                                               ; preds = %16
  br label %19

19:                                               ; preds = %18
  %20 = load i32, i32* %3, align 4
  %21 = add nsw i32 %20, -1
  store i32 %21, i32* %3, align 4
  br label %6

22:                                               ; preds = %16
  br label %23

23:                                               ; preds = %33, %22
  %24 = load i32, i32* %3, align 4
  %25 = icmp sge i32 %24, 0
  br i1 %25, label %26, label %36

26:                                               ; preds = %23
  %27 = load i32, i32* %3, align 4
  %28 = sext i32 %27 to i64
  %29 = getelementptr inbounds [6 x i8], [6 x i8]* %2, i64 0, i64 %28
  %30 = load i8, i8* %29, align 1
  %31 = sext i8 %30 to i32
  %32 = call i32 (i8*, ...) @printf(i8* getelementptr inbounds ([3 x i8], [3 x i8]* @.str.1, i64 0, i64 0), i32 %31)
  br label %33

33:                                               ; preds = %26
  %34 = load i32, i32* %3, align 4
  %35 = add nsw i32 %34, -1
  store i32 %35, i32* %3, align 4
  br label %23

36:                                               ; preds = %23
  ret i32 0
}

; Function Attrs: argmemonly nounwind willreturn
declare void @llvm.memset.p0i8.i64(i8* nocapture writeonly, i8, i64, i1 immarg) #1

declare dso_local i32 @__isoc99_scanf(i8*, ...) #2

declare dso_local i32 @printf(i8*, ...) #2


!llvm.module.flags = !{!0}
!llvm.ident = !{!1}

!0 = !{i32 1, !"wchar_size", i32 4}
!1 = !{!"clang version 10.0.0-4ubuntu1 "}
